(dp0
I1900
F29.5709
sI1901
F29.212
sI1902
F28.8618
sI1903
F28.218899999999998
sI1904
F27.8919
sI1905
F28.218899999999998
sI1906
F27.604
sI1907
F26.4223
sI1908
F26.985100000000003
sI1909
F27.291
sI1910
F26.1354
sI1911
F26.1354
sI1912
F25.6071
sI1913
F24.3548
sI1914
F24.0306
sI1915
F23.8127
sI1916
F22.116999999999997
sI1917
F18.7686
sI1918
F16.0027
sI1919
F13.8869
sI1920
F12.010299999999999
sI1921
F13.485
sI1922
F14.3706
sI1923
F14.1177
sI1924
F14.0559
sI1925
F13.722000000000001
sI1926
F13.599300000000001
sI1927
F13.866900000000001
sI1928
F14.028599999999999
sI1929
F14.028599999999999
sI1930
F14.413599999999999
sI1931
F15.827300000000001
sI1932
F17.645
sI1933
F18.6114
sI1934
F17.985599999999998
sI1935
F17.5379
sI1936
F17.3587
sI1937
F16.7351
sI1938
F17.081500000000002
sI1939
F17.3067
sI1940
F17.1831
sI1941
F16.3468
sI1942
F14.7372
sI1943
F13.907
sI1944
F13.683
sI1945
F13.378800000000002
sI1946
F12.3334
sI1947
F10.7819
sI1948
F10.0121
sI1949
F10.110199999999999
sI1950
F10.0017
sI1951
F9.2728
sI1952
F9.0662
sI1953
F8.992799999999999
sI1954
F8.9649
sI1955
F8.99
sI1956
F8.8549
sI1957
F8.5686
sI1958
F8.341000000000001
sI1959
F8.2575
sI1960
F8.1389
sI1961
F8.0526
sI1962
F7.9573
sI1963
F7.8598
sI1964
F7.760599999999999
sI1965
F7.639500000000001
sI1966
F7.415900000000001
sI1967
F7.215800000000001
sI1968
F6.9201999999999995
sI1969
F6.5618
sI1970
F6.1998
sI1971
F5.9446
sI1972
F5.7562
sI1973
F5.4213
sI1974
F4.8817
sI1975
F4.4727
sI1976
F4.2297
sI1977
F3.9715
sI1978
F3.6899
sI1979
F3.3167
sI1980
F2.9208999999999996
sI1981
F2.6473
sI1982
F2.4944
sI1983
F2.4167
sI1984
F2.3171
sI1985
F2.2377000000000002
sI1986
F2.1961
sI1987
F2.1184
sI1988
F2.0354
sI1989
F1.9417
sI1990
F1.8422999999999998
sI1991
F1.7674
sI1992
F1.7155
sI1993
F1.6663
sI1994
F1.6239
sI1995
F1.5796000000000001
sI1996
F1.5346000000000002
sI1997
F1.4996
sI1998
F1.4767
sI1999
F1.445
sI2000
F1.3978
sI2001
F1.3594
sI2002
F1.3381999999999998
sI2003
F1.3085
sI2004
F1.2744
sI2005
F1.2326000000000001
sI2006
F1.194
sI2007
F1.1609
sI2008
F1.1179999999999999
sI2009
F1.122
sI2010
F1.1039
sI2011
F1.0714
sI2012
F1.0485
sI2013
F1.0332999999999999
sI2014
F1.018
sI2015
F1.0
s.